; Function Attrs: mustprogress nounwind uwtable
define hidden void @_ZN20WorkerTaskDispatcher15worker_run_taskEv(ptr noundef nonnull align 8 dereferenceable(80) %0) local_unnamed_addr #0 align 2 {
  %2 = alloca %class.GCIdMark, align 4
  %3 = getelementptr inbounds i8, ptr %0, i64 16
  tail call void @_ZN14PosixSemaphore4waitEv(ptr noundef nonnull align 8 dereferenceable(32) %3) #10
  %4 = getelementptr inbounds i8, ptr %0, i64 8
  %5 = tail call noundef i32 asm sideeffect "lock xaddl $0,($2)", "=r,0,r,~{cc},~{memory},~{dirflag},~{fpsr},~{flags}"(i32 1, ptr nonnull %4) #10, !srcloc !6
  %6 = tail call align 4 ptr @llvm.threadlocal.address.p0(ptr align 4 @_ZN12WorkerThread10_worker_idE)
  store i32 %5, ptr %6, align 4
  %7 = load ptr, ptr %0, align 8
  %8 = getelementptr inbounds i8, ptr %7, i64 16
  %9 = load i32, ptr %8, align 8
  call void @_ZN8GCIdMarkC1Ej(ptr noundef nonnull align 4 dereferenceable(4) %2, i32 noundef %9) #10
  %10 = load ptr, ptr %0, align 8
  %11 = load ptr, ptr %10, align 8
  %12 = load ptr, ptr %11, align 8
  call void %12(ptr noundef nonnull align 8 dereferenceable(20) %10, i32 noundef %5) #10
  %13 = getelementptr inbounds i8, ptr %0, i64 12
  %14 = call noundef i32 asm sideeffect "lock xaddl $0,($2)", "=r,0,r,~{cc},~{memory},~{dirflag},~{fpsr},~{flags}"(i32 -1, ptr nonnull %13) #10, !srcloc !6
  %15 = icmp eq i32 %14, 1
  br i1 %15, label %16, label %18

16:                                               ; preds = %1
  %17 = getelementptr inbounds i8, ptr %0, i64 48
  call void @_ZN14PosixSemaphore6signalEj(ptr noundef nonnull align 8 dereferenceable(32) %17, i32 noundef 1) #10
  br label %18

18:                                               ; preds = %16, %1
  call void @_ZN8GCIdMarkD1Ev(ptr noundef nonnull align 4 dereferenceable(4) %2) #10
  ret void
}